target datalayout = "e-m:e-p270:32:32-p271:32:32-p272:64:64-i64:64-i128:128-f80:128-n8:16:32:64-S128"
target triple = "x86_64-pc-linux-gnu"

%struct.Gia_Obj_t_ = type <{ i64, i32 }>

; Function Attrs: nounwind uwtable
define internal ptr @Gia_ObjFanin1(ptr noundef %0) #0 {
  %2 = alloca ptr, align 8
  store ptr %0, ptr %2, align 8
  %3 = load ptr, ptr %2, align 8
  %4 = load ptr, ptr %2, align 8
  %5 = load i64, ptr %4, align 4
  %6 = lshr i64 %5, 32
  %7 = and i64 %6, 536870911
  %8 = trunc i64 %7 to i32
  %9 = sext i32 %8 to i64
  %10 = sub i64 0, %9
  %11 = getelementptr inbounds %struct.Gia_Obj_t_, ptr %3, i64 %10
  ret ptr %11
}

; Function Attrs: nounwind uwtable
define internal ptr @Gia_ObjFanin0(ptr noundef %0) #0 {
  %2 = alloca ptr, align 8
  store ptr %0, ptr %2, align 8
  %3 = load ptr, ptr %2, align 8
  %4 = load ptr, ptr %2, align 8
  %5 = load i64, ptr %4, align 4
  %6 = and i64 %5, 536870911
  %7 = trunc i64 %6 to i32
  %8 = sext i32 %7 to i64
  %9 = sub i64 0, %8
  %10 = getelementptr inbounds %struct.Gia_Obj_t_, ptr %3, i64 %9
  ret ptr %10
}

; Function Attrs: nounwind uwtable
define internal i32 @Gia_ObjFaninC1(ptr noundef %0) #0 {
  %2 = alloca ptr, align 8
  store ptr %0, ptr %2, align 8
  %3 = load ptr, ptr %2, align 8
  %4 = load i64, ptr %3, align 4
  %5 = lshr i64 %4, 61
  %6 = and i64 %5, 1
  %7 = trunc i64 %6 to i32
  ret i32 %7
}

; Function Attrs: nounwind uwtable
define internal i32 @Gia_ObjFaninC0(ptr noundef %0) #0 {
  %2 = alloca ptr, align 8
  store ptr %0, ptr %2, align 8
  %3 = load ptr, ptr %2, align 8
  %4 = load i64, ptr %3, align 4
  %5 = lshr i64 %4, 29
  %6 = and i64 %5, 1
  %7 = trunc i64 %6 to i32
  ret i32 %7
}

; Function Attrs: nounwind uwtable
define internal i32 @Gia_ObjIsBuf(ptr noundef %0) #0 {
  %2 = alloca ptr, align 8
  store ptr %0, ptr %2, align 8
  %3 = load ptr, ptr %2, align 8
  %4 = load i64, ptr %3, align 4
  %5 = and i64 %4, 536870911
  %6 = trunc i64 %5 to i32
  %7 = load ptr, ptr %2, align 8
  %8 = load i64, ptr %7, align 4
  %9 = lshr i64 %8, 32
  %10 = and i64 %9, 536870911
  %11 = trunc i64 %10 to i32
  %12 = icmp eq i32 %6, %11
  br i1 %12, label %13, label %27

13:                                               ; preds = %1
  %14 = load ptr, ptr %2, align 8
  %15 = load i64, ptr %14, align 4
  %16 = and i64 %15, 536870911
  %17 = trunc i64 %16 to i32
  %18 = icmp ne i32 %17, 536870911
  br i1 %18, label %19, label %27

19:                                               ; preds = %13
  %20 = load ptr, ptr %2, align 8
  %21 = load i64, ptr %20, align 4
  %22 = lshr i64 %21, 31
  %23 = and i64 %22, 1
  %24 = trunc i64 %23 to i32
  %25 = icmp ne i32 %24, 0
  %26 = xor i1 %25, true
  br label %27

27:                                               ; preds = %19, %13, %1
  %28 = phi i1 [ false, %13 ], [ false, %1 ], [ %26, %19 ]
  %29 = zext i1 %28 to i32
  ret i32 %29
}

; Function Attrs: nounwind uwtable
define internal i32 @Gia_ObjIsAnd(ptr noundef %0) #0 {
  %2 = alloca ptr, align 8
  store ptr %0, ptr %2, align 8
  %3 = load ptr, ptr %2, align 8
  %4 = load i64, ptr %3, align 4
  %5 = lshr i64 %4, 31
  %6 = and i64 %5, 1
  %7 = trunc i64 %6 to i32
  %8 = icmp ne i32 %7, 0
  br i1 %8, label %15, label %9

9:                                                ; preds = %1
  %10 = load ptr, ptr %2, align 8
  %11 = load i64, ptr %10, align 4
  %12 = and i64 %11, 536870911
  %13 = trunc i64 %12 to i32
  %14 = icmp ne i32 %13, 536870911
  br label %15

15:                                               ; preds = %9, %1
  %16 = phi i1 [ false, %1 ], [ %14, %9 ]
  %17 = zext i1 %16 to i32
  ret i32 %17
}

; Function Attrs: nounwind uwtable
define i32 @Gia_ObjIsMuxType(ptr noundef %0) #0 {
  %2 = alloca i32, align 4
  %3 = alloca ptr, align 8
  %4 = alloca ptr, align 8
  %5 = alloca ptr, align 8
  store ptr %0, ptr %3, align 8
  %6 = load ptr, ptr %3, align 8
  %7 = call i32 @Gia_ObjIsAnd(ptr noundef %6)
  %8 = icmp ne i32 %7, 0
  br i1 %8, label %9, label %13

9:                                                ; preds = %1
  %10 = load ptr, ptr %3, align 8
  %11 = call i32 @Gia_ObjIsBuf(ptr noundef %10)
  %12 = icmp ne i32 %11, 0
  br i1 %12, label %13, label %14

13:                                               ; preds = %9, %1
  store i32 0, ptr %2, align 4
  br label %93

14:                                               ; preds = %9
  %15 = load ptr, ptr %3, align 8
  %16 = call i32 @Gia_ObjFaninC0(ptr noundef %15)
  %17 = icmp ne i32 %16, 0
  br i1 %17, label %18, label %22

18:                                               ; preds = %14
  %19 = load ptr, ptr %3, align 8
  %20 = call i32 @Gia_ObjFaninC1(ptr noundef %19)
  %21 = icmp ne i32 %20, 0
  br i1 %21, label %23, label %22

22:                                               ; preds = %18, %14
  store i32 0, ptr %2, align 4
  br label %93

23:                                               ; preds = %18
  %24 = load ptr, ptr %3, align 8
  %25 = call ptr @Gia_ObjFanin0(ptr noundef %24)
  store ptr %25, ptr %4, align 8
  %26 = load ptr, ptr %3, align 8
  %27 = call ptr @Gia_ObjFanin1(ptr noundef %26)
  store ptr %27, ptr %5, align 8
  %28 = load ptr, ptr %4, align 8
  %29 = call i32 @Gia_ObjIsAnd(ptr noundef %28)
  %30 = icmp ne i32 %29, 0
  br i1 %30, label %31, label %35

31:                                               ; preds = %23
  %32 = load ptr, ptr %5, align 8
  %33 = call i32 @Gia_ObjIsAnd(ptr noundef %32)
  %34 = icmp ne i32 %33, 0
  br i1 %34, label %36, label %35

35:                                               ; preds = %31, %23
  store i32 0, ptr %2, align 4
  br label %93

36:                                               ; preds = %31
  %37 = load ptr, ptr %4, align 8
  %38 = call ptr @Gia_ObjFanin0(ptr noundef %37)
  %39 = load ptr, ptr %5, align 8
  %40 = call ptr @Gia_ObjFanin0(ptr noundef %39)
  %41 = icmp eq ptr %38, %40
  br i1 %41, label %42, label %49

42:                                               ; preds = %36
  %43 = load ptr, ptr %4, align 8
  %44 = call i32 @Gia_ObjFaninC0(ptr noundef %43)
  %45 = load ptr, ptr %5, align 8
  %46 = call i32 @Gia_ObjFaninC0(ptr noundef %45)
  %47 = xor i32 %44, %46
  %48 = icmp ne i32 %47, 0
  br i1 %48, label %90, label %49

49:                                               ; preds = %42, %36
  %50 = load ptr, ptr %4, align 8
  %51 = call ptr @Gia_ObjFanin0(ptr noundef %50)
  %52 = load ptr, ptr %5, align 8
  %53 = call ptr @Gia_ObjFanin1(ptr noundef %52)
  %54 = icmp eq ptr %51, %53
  br i1 %54, label %55, label %62

55:                                               ; preds = %49
  %56 = load ptr, ptr %4, align 8
  %57 = call i32 @Gia_ObjFaninC0(ptr noundef %56)
  %58 = load ptr, ptr %5, align 8
  %59 = call i32 @Gia_ObjFaninC1(ptr noundef %58)
  %60 = xor i32 %57, %59
  %61 = icmp ne i32 %60, 0
  br i1 %61, label %90, label %62

62:                                               ; preds = %55, %49
  %63 = load ptr, ptr %4, align 8
  %64 = call ptr @Gia_ObjFanin1(ptr noundef %63)
  %65 = load ptr, ptr %5, align 8
  %66 = call ptr @Gia_ObjFanin0(ptr noundef %65)
  %67 = icmp eq ptr %64, %66
  br i1 %67, label %68, label %75

68:                                               ; preds = %62
  %69 = load ptr, ptr %4, align 8
  %70 = call i32 @Gia_ObjFaninC1(ptr noundef %69)
  %71 = load ptr, ptr %5, align 8
  %72 = call i32 @Gia_ObjFaninC0(ptr noundef %71)
  %73 = xor i32 %70, %72
  %74 = icmp ne i32 %73, 0
  br i1 %74, label %90, label %75

75:                                               ; preds = %68, %62
  %76 = load ptr, ptr %4, align 8
  %77 = call ptr @Gia_ObjFanin1(ptr noundef %76)
  %78 = load ptr, ptr %5, align 8
  %79 = call ptr @Gia_ObjFanin1(ptr noundef %78)
  %80 = icmp eq ptr %77, %79
  br i1 %80, label %81, label %88

81:                                               ; preds = %75
  %82 = load ptr, ptr %4, align 8
  %83 = call i32 @Gia_ObjFaninC1(ptr noundef %82)
  %84 = load ptr, ptr %5, align 8
  %85 = call i32 @Gia_ObjFaninC1(ptr noundef %84)
  %86 = xor i32 %83, %85
  %87 = icmp ne i32 %86, 0
  br label %88

88:                                               ; preds = %81, %75
  %89 = phi i1 [ false, %75 ], [ %87, %81 ]
  br label %90

90:                                               ; preds = %88, %68, %55, %42
  %91 = phi i1 [ true, %68 ], [ true, %55 ], [ true, %42 ], [ %89, %88 ]
  %92 = zext i1 %91 to i32
  store i32 %92, ptr %2, align 4
  br label %93

93:                                               ; preds = %90, %35, %22, %13
  %94 = load i32, ptr %2, align 4
  ret i32 %94
}