; Function Attrs: mustprogress nofree norecurse nosync nounwind willreturn memory(argmem: read) uwtable
define range(i32 0, 2) i32 @Gia_ObjIsMuxType(ptr noundef readonly %0) local_unnamed_addr #16 {
  %.val33 = load i64, ptr %0, align 4
  %2 = and i64 %.val33, 2147483648
  %.not.i = icmp eq i64 %2, 0
  %3 = and i64 %.val33, 536870911
  %4 = icmp ne i64 %3, 536870911
  %narrow.i = and i1 %.not.i, %4
  br i1 %narrow.i, label %5, label %69

5:                                                ; preds = %1
  %6 = trunc i64 %.val33 to i32
  %7 = and i32 %6, 536870911
  %8 = lshr i64 %.val33, 32
  %9 = trunc nuw i64 %8 to i32
  %10 = and i32 %9, 536870911
  %11 = icmp eq i32 %7, %10
  %.not.i45 = icmp ne i32 %7, 536870911
  %or.cond.not.i = and i1 %.not.i45, %11
  %12 = and i32 %6, 536870912
  %.not25 = icmp eq i32 %12, 0
  %or.cond = or i1 %.not25, %or.cond.not.i
  %13 = and i64 %.val33, 2305843009213693952
  %.not26 = icmp eq i64 %13, 0
  %or.cond51 = or i1 %.not26, %or.cond
  br i1 %or.cond51, label %69, label %14

14:                                               ; preds = %5
  %15 = sub nsw i64 0, %3
  %16 = getelementptr inbounds %struct.Gia_Obj_t_, ptr %0, i64 %15
  %17 = and i64 %8, 536870911
  %18 = sub nsw i64 0, %17
  %19 = getelementptr inbounds %struct.Gia_Obj_t_, ptr %0, i64 %18
  %.val32 = load i64, ptr %16, align 4
  %20 = and i64 %.val32, 2147483648
  %.not.i47 = icmp ne i64 %20, 0
  %21 = and i64 %.val32, 536870911
  %22 = icmp eq i64 %21, 536870911
  %narrow.i48.not = or i1 %.not.i47, %22
  br i1 %narrow.i48.not, label %69, label %23

23:                                               ; preds = %14
  %.val = load i64, ptr %19, align 4
  %24 = and i64 %.val, 2147483648
  %.not.i49 = icmp ne i64 %24, 0
  %25 = and i64 %.val, 536870911
  %26 = icmp eq i64 %25, 536870911
  %narrow.i50.not = or i1 %.not.i49, %26
  br i1 %narrow.i50.not, label %69, label %27

27:                                               ; preds = %23
  %28 = sub nsw i64 0, %21
  %29 = getelementptr inbounds %struct.Gia_Obj_t_, ptr %16, i64 %28
  %30 = sub nsw i64 0, %25
  %31 = getelementptr inbounds %struct.Gia_Obj_t_, ptr %19, i64 %30
  %32 = icmp eq ptr %29, %31
  br i1 %32, label %33, label %36

33:                                               ; preds = %27
  %34 = xor i64 %.val, %.val32
  %35 = and i64 %34, 536870912
  %.not29 = icmp eq i64 %35, 0
  br i1 %.not29, label %36, label %69

36:                                               ; preds = %33, %27
  %37 = lshr i64 %.val, 32
  %38 = and i64 %37, 536870911
  %39 = sub nsw i64 0, %38
  %40 = getelementptr inbounds %struct.Gia_Obj_t_, ptr %19, i64 %39
  %41 = icmp eq ptr %29, %40
  br i1 %41, label %42, label %49

42:                                               ; preds = %36
  %43 = trunc i64 %.val32 to i32
  %44 = lshr i32 %43, 29
  %45 = lshr i64 %.val, 61
  %46 = trunc nuw nsw i64 %45 to i32
  %47 = xor i32 %44, %46
  %48 = and i32 %47, 1
  %.not30 = icmp eq i32 %48, 0
  br i1 %.not30, label %49, label %69

49:                                               ; preds = %42, %36
  %50 = lshr i64 %.val32, 32
  %51 = and i64 %50, 536870911
  %52 = sub nsw i64 0, %51
  %53 = getelementptr inbounds %struct.Gia_Obj_t_, ptr %16, i64 %52
  %54 = icmp eq ptr %53, %31
  br i1 %54, label %55, label %62

55:                                               ; preds = %49
  %56 = lshr i64 %.val32, 61
  %57 = trunc nuw nsw i64 %56 to i32
  %58 = trunc i64 %.val to i32
  %59 = lshr i32 %58, 29
  %60 = xor i32 %59, %57
  %61 = and i32 %60, 1
  %.not31 = icmp eq i32 %61, 0
  br i1 %.not31, label %62, label %69

62:                                               ; preds = %55, %49
  %63 = icmp eq ptr %53, %40
  br i1 %63, label %64, label %69

64:                                               ; preds = %62
  %65 = xor i64 %.val, %.val32
  %66 = lshr i64 %65, 61
  %67 = trunc nuw nsw i64 %66 to i32
  %68 = and i32 %67, 1
  br label %69

69:                                               ; preds = %33, %42, %55, %64, %62, %14, %23, %1, %5
  %.0 = phi i32 [ 0, %5 ], [ 0, %1 ], [ 0, %23 ], [ 0, %14 ], [ 1, %55 ], [ 1, %42 ], [ 1, %33 ], [ 0, %62 ], [ %68, %64 ]
  ret i32 %.0
}